; Function Attrs: mustprogress nofree nounwind willreturn memory(read, inaccessiblemem: none) uwtable
define internal noundef ptr @_ZNSt23_Sp_counted_ptr_inplaceIN12_GLOBAL__N_126NotMoveAssignableCustomPtrESaIvELN9__gnu_cxx12_Lock_policyE2EE14_M_get_deleterERKSt9type_info(ptr noundef nonnull readnone align 8 dereferenceable(24) %0, ptr noundef nonnull readonly align 8 dereferenceable(16) %1) unnamed_addr #11 align 2 {
  %3 = getelementptr inbounds nuw i8, ptr %0, i64 16
  %4 = icmp eq ptr %1, @_ZZNSt19_Sp_make_shared_tag5_S_tiEvE5__tag
  br i1 %4, label %_ZNKSt9type_infoeqERKS_.exit.thread8, label %5

5:                                                ; preds = %2
  %6 = getelementptr inbounds nuw i8, ptr %1, i64 8
  %7 = load ptr, ptr %6, align 8
  %8 = icmp eq ptr %7, @_ZTSSt19_Sp_make_shared_tag
  br i1 %8, label %_ZNKSt9type_infoeqERKS_.exit.thread, label %9

9:                                                ; preds = %5
  %10 = load i8, ptr %7, align 1
  %.not.i = icmp eq i8 %10, 42
  br i1 %.not.i, label %_ZNKSt9type_infoeqERKS_.exit.thread8, label %_ZNKSt9type_infoeqERKS_.exit

_ZNKSt9type_infoeqERKS_.exit:                     ; preds = %9
  %11 = tail call i32 @strcmp(ptr noundef nonnull dereferenceable(1) %7, ptr noundef nonnull dereferenceable(24) @_ZTSSt19_Sp_make_shared_tag) #16
  %.fr = freeze i32 %11
  %12 = icmp eq i32 %.fr, 0
  br i1 %12, label %_ZNKSt9type_infoeqERKS_.exit.thread, label %_ZNKSt9type_infoeqERKS_.exit.thread8

_ZNKSt9type_infoeqERKS_.exit.thread:              ; preds = %5, %_ZNKSt9type_infoeqERKS_.exit
  br label %_ZNKSt9type_infoeqERKS_.exit.thread8

_ZNKSt9type_infoeqERKS_.exit.thread8:             ; preds = %9, %_ZNKSt9type_infoeqERKS_.exit.thread, %_ZNKSt9type_infoeqERKS_.exit, %2
  %.0 = phi ptr [ %3, %2 ], [ %3, %_ZNKSt9type_infoeqERKS_.exit.thread ], [ null, %_ZNKSt9type_infoeqERKS_.exit ], [ null, %9 ]
  ret ptr %.0
}